target datalayout = "e-m:e-p270:32:32-p271:32:32-p272:64:64-i64:64-i128:128-f80:128-n8:16:32:64-S128"
target triple = "x86_64-pc-linux-gnu"

%struct.pointf_s = type { double, double }
%struct.Agobj_s = type { %struct.Agtag_s, ptr }
%struct.Agtag_s = type { i32, i64 }
%struct.Agrec_s = type { ptr, ptr }
%struct.boxf = type { %struct.pointf_s, %struct.pointf_s }
%struct.Agedgeinfo_t = type { %struct.Agrec_s, ptr, %struct.port, %struct.port, ptr, ptr, ptr, ptr, i8, i8, i8, i8, i8, ptr, ptr, double, double, %struct.Ppoly_t, i8, i8, i16, i32, i32, i32, i16, i32, ptr }
%struct.port = type { %struct.pointf_s, double, ptr, i8, i8, i8, i8, i8, i8, ptr }
%struct.Ppoly_t = type { ptr, i64 }
%struct.splines = type { ptr, i64, %struct.boxf }
%struct.bezier = type { ptr, i64, i32, i32, %struct.pointf_s, %struct.pointf_s }

@stderr = external global ptr, align 8
@.str.1 = private unnamed_addr constant [58 x i8] c"integer overflow when trying to allocate %zu * %zu bytes\0A\00", align 1
@.str.2 = private unnamed_addr constant [49 x i8] c"out of memory when trying to allocate %zu bytes\0A\00", align 1

; Function Attrs: inlinehint nounwind uwtable
define internal ptr @gv_realloc(ptr noundef %0, i64 noundef %1, i64 noundef %2) #6 {
  %4 = alloca ptr, align 8
  %5 = alloca ptr, align 8
  %6 = alloca i64, align 8
  %7 = alloca i64, align 8
  %8 = alloca ptr, align 8
  store ptr %0, ptr %5, align 8, !tbaa !8
  store i64 %1, ptr %6, align 8, !tbaa !62
  store i64 %2, ptr %7, align 8, !tbaa !62
  %9 = load i64, ptr %7, align 8, !tbaa !62
  %10 = icmp eq i64 %9, 0
  br i1 %10, label %11, label %13

11:                                               ; preds = %3
  %12 = load ptr, ptr %5, align 8, !tbaa !8
  call void @free(ptr noundef %12) #12
  store ptr null, ptr %4, align 8
  br label %36

13:                                               ; preds = %3
  call void @llvm.lifetime.start.p0(i64 8, ptr %8) #12
  %14 = load ptr, ptr %5, align 8, !tbaa !8
  %15 = load i64, ptr %7, align 8, !tbaa !62
  %16 = call ptr @realloc(ptr noundef %14, i64 noundef %15) #16
  store ptr %16, ptr %8, align 8, !tbaa !8
  %17 = load ptr, ptr %8, align 8, !tbaa !8
  %18 = icmp eq ptr %17, null
  br i1 %18, label %19, label %23

19:                                               ; preds = %13
  %20 = load ptr, ptr @stderr, align 8, !tbaa !86
  %21 = load i64, ptr %7, align 8, !tbaa !62
  %22 = call i32 (ptr, ptr, ...) @fprintf(ptr noundef %20, ptr noundef @.str.2, i64 noundef %21) #12
  call void @graphviz_exit(i32 noundef 1) #13
  unreachable

23:                                               ; preds = %13
  %24 = load i64, ptr %7, align 8, !tbaa !62
  %25 = load i64, ptr %6, align 8, !tbaa !62
  %26 = icmp ugt i64 %24, %25
  br i1 %26, label %27, label %34

27:                                               ; preds = %23
  %28 = load ptr, ptr %8, align 8, !tbaa !8
  %29 = load i64, ptr %6, align 8, !tbaa !62
  %30 = getelementptr inbounds nuw i8, ptr %28, i64 %29
  %31 = load i64, ptr %7, align 8, !tbaa !62
  %32 = load i64, ptr %6, align 8, !tbaa !62
  %33 = sub i64 %31, %32
  call void @llvm.memset.p0.i64(ptr align 1 %30, i8 0, i64 %33, i1 false)
  br label %34

34:                                               ; preds = %27, %23
  %35 = load ptr, ptr %8, align 8, !tbaa !8
  store ptr %35, ptr %4, align 8
  call void @llvm.lifetime.end.p0(i64 8, ptr %8) #12
  br label %36

36:                                               ; preds = %34, %11
  %37 = load ptr, ptr %4, align 8
  ret ptr %37
}

; Function Attrs: inlinehint nounwind uwtable
define internal ptr @gv_calloc(i64 noundef %0, i64 noundef %1) #6 {
  %3 = alloca i64, align 8
  %4 = alloca i64, align 8
  %5 = alloca ptr, align 8
  store i64 %0, ptr %3, align 8, !tbaa !62
  store i64 %1, ptr %4, align 8, !tbaa !62
  %6 = load i64, ptr %3, align 8, !tbaa !62
  %7 = icmp ugt i64 %6, 0
  br i1 %7, label %8, label %18

8:                                                ; preds = %2
  %9 = load i64, ptr %3, align 8, !tbaa !62
  %10 = udiv i64 -1, %9
  %11 = load i64, ptr %4, align 8, !tbaa !62
  %12 = icmp ult i64 %10, %11
  br i1 %12, label %13, label %18

13:                                               ; preds = %8
  %14 = load ptr, ptr @stderr, align 8, !tbaa !86
  %15 = load i64, ptr %3, align 8, !tbaa !62
  %16 = load i64, ptr %4, align 8, !tbaa !62
  %17 = call i32 (ptr, ptr, ...) @fprintf(ptr noundef %14, ptr noundef @.str.1, i64 noundef %15, i64 noundef %16) #12
  call void @graphviz_exit(i32 noundef 1) #13
  unreachable

18:                                               ; preds = %8, %2
  call void @llvm.lifetime.start.p0(i64 8, ptr %5) #12
  %19 = load i64, ptr %3, align 8, !tbaa !62
  %20 = load i64, ptr %4, align 8, !tbaa !62
  %21 = call noalias ptr @calloc(i64 noundef %19, i64 noundef %20) #14
  store ptr %21, ptr %5, align 8, !tbaa !8
  %22 = load i64, ptr %3, align 8, !tbaa !62
  %23 = icmp ugt i64 %22, 0
  br i1 %23, label %24, label %36

24:                                               ; preds = %18
  %25 = load i64, ptr %4, align 8, !tbaa !62
  %26 = icmp ugt i64 %25, 0
  br i1 %26, label %27, label %36

27:                                               ; preds = %24
  %28 = load ptr, ptr %5, align 8, !tbaa !8
  %29 = icmp eq ptr %28, null
  br i1 %29, label %30, label %36

30:                                               ; preds = %27
  %31 = load ptr, ptr @stderr, align 8, !tbaa !86
  %32 = load i64, ptr %3, align 8, !tbaa !62
  %33 = load i64, ptr %4, align 8, !tbaa !62
  %34 = mul i64 %32, %33
  %35 = call i32 (ptr, ptr, ...) @fprintf(ptr noundef %31, ptr noundef @.str.2, i64 noundef %34) #12
  call void @graphviz_exit(i32 noundef 1) #13
  unreachable

36:                                               ; preds = %27, %24, %18
  %37 = load ptr, ptr %5, align 8, !tbaa !8
  call void @llvm.lifetime.end.p0(i64 8, ptr %5) #12
  ret ptr %37
}

; Function Attrs: inlinehint nounwind uwtable
define internal ptr @gv_recalloc(ptr noundef %0, i64 noundef %1, i64 noundef %2, i64 noundef %3) #6 {
  %5 = alloca ptr, align 8
  %6 = alloca i64, align 8
  %7 = alloca i64, align 8
  %8 = alloca i64, align 8
  store ptr %0, ptr %5, align 8, !tbaa !8
  store i64 %1, ptr %6, align 8, !tbaa !62
  store i64 %2, ptr %7, align 8, !tbaa !62
  store i64 %3, ptr %8, align 8, !tbaa !62
  %9 = load i64, ptr %7, align 8, !tbaa !62
  %10 = load i64, ptr %8, align 8, !tbaa !62
  %11 = udiv i64 -1, %10
  %12 = icmp ugt i64 %9, %11
  br i1 %12, label %13, label %18

13:                                               ; preds = %4
  %14 = load ptr, ptr @stderr, align 8, !tbaa !86
  %15 = load i64, ptr %7, align 8, !tbaa !62
  %16 = load i64, ptr %8, align 8, !tbaa !62
  %17 = call i32 (ptr, ptr, ...) @fprintf(ptr noundef %14, ptr noundef @.str.1, i64 noundef %15, i64 noundef %16) #12
  call void @graphviz_exit(i32 noundef 1) #13
  unreachable

18:                                               ; preds = %4
  %19 = load ptr, ptr %5, align 8, !tbaa !8
  %20 = load i64, ptr %6, align 8, !tbaa !62
  %21 = load i64, ptr %8, align 8, !tbaa !62
  %22 = mul i64 %20, %21
  %23 = load i64, ptr %7, align 8, !tbaa !62
  %24 = load i64, ptr %8, align 8, !tbaa !62
  %25 = mul i64 %23, %24
  %26 = call ptr @gv_realloc(ptr noundef %19, i64 noundef %22, i64 noundef %25)
  ret ptr %26
}

; Function Attrs: inlinehint nounwind uwtable
define internal ptr @gv_alloc(i64 noundef %0) #6 {
  %2 = alloca i64, align 8
  store i64 %0, ptr %2, align 8, !tbaa !62
  %3 = load i64, ptr %2, align 8, !tbaa !62
  %4 = call ptr @gv_calloc(i64 noundef 1, i64 noundef %3)
  ret ptr %4
}

; Function Attrs: nounwind uwtable
define ptr @new_spline(ptr noundef %0, i64 noundef %1) #0 {
  %3 = alloca ptr, align 8
  %4 = alloca i64, align 8
  %5 = alloca ptr, align 8
  store ptr %0, ptr %3, align 8, !tbaa !61
  store i64 %1, ptr %4, align 8, !tbaa !62
  call void @llvm.lifetime.start.p0(i64 8, ptr %5) #12
  br label %6

6:                                                ; preds = %23, %2
  %7 = load ptr, ptr %3, align 8, !tbaa !61
  %8 = getelementptr inbounds nuw %struct.Agobj_s, ptr %7, i32 0, i32 1
  %9 = load ptr, ptr %8, align 8, !tbaa !32
  %10 = getelementptr inbounds nuw %struct.Agedgeinfo_t, ptr %9, i32 0, i32 13
  %11 = load ptr, ptr %10, align 8, !tbaa !63
  %12 = icmp ne ptr %11, null
  br i1 %12, label %13, label %21

13:                                               ; preds = %6
  %14 = load ptr, ptr %3, align 8, !tbaa !61
  %15 = getelementptr inbounds nuw %struct.Agobj_s, ptr %14, i32 0, i32 1
  %16 = load ptr, ptr %15, align 8, !tbaa !32
  %17 = getelementptr inbounds nuw %struct.Agedgeinfo_t, ptr %16, i32 0, i32 8
  %18 = load i8, ptr %17, align 8, !tbaa !69
  %19 = sext i8 %18 to i32
  %20 = icmp ne i32 %19, 0
  br label %21

21:                                               ; preds = %13, %6
  %22 = phi i1 [ false, %6 ], [ %20, %13 ]
  br i1 %22, label %23, label %29

23:                                               ; preds = %21
  %24 = load ptr, ptr %3, align 8, !tbaa !61
  %25 = getelementptr inbounds nuw %struct.Agobj_s, ptr %24, i32 0, i32 1
  %26 = load ptr, ptr %25, align 8, !tbaa !32
  %27 = getelementptr inbounds nuw %struct.Agedgeinfo_t, ptr %26, i32 0, i32 13
  %28 = load ptr, ptr %27, align 8, !tbaa !63
  store ptr %28, ptr %3, align 8, !tbaa !61
  br label %6, !llvm.loop !70

29:                                               ; preds = %21
  %30 = load ptr, ptr %3, align 8, !tbaa !61
  %31 = getelementptr inbounds nuw %struct.Agobj_s, ptr %30, i32 0, i32 1
  %32 = load ptr, ptr %31, align 8, !tbaa !32
  %33 = getelementptr inbounds nuw %struct.Agedgeinfo_t, ptr %32, i32 0, i32 1
  %34 = load ptr, ptr %33, align 8, !tbaa !71
  %35 = icmp eq ptr %34, null
  br i1 %35, label %36, label %42

36:                                               ; preds = %29
  %37 = call ptr @gv_alloc(i64 noundef 48)
  %38 = load ptr, ptr %3, align 8, !tbaa !61
  %39 = getelementptr inbounds nuw %struct.Agobj_s, ptr %38, i32 0, i32 1
  %40 = load ptr, ptr %39, align 8, !tbaa !32
  %41 = getelementptr inbounds nuw %struct.Agedgeinfo_t, ptr %40, i32 0, i32 1
  store ptr %37, ptr %41, align 8, !tbaa !71
  br label %42

42:                                               ; preds = %36, %29
  %43 = load ptr, ptr %3, align 8, !tbaa !61
  %44 = getelementptr inbounds nuw %struct.Agobj_s, ptr %43, i32 0, i32 1
  %45 = load ptr, ptr %44, align 8, !tbaa !32
  %46 = getelementptr inbounds nuw %struct.Agedgeinfo_t, ptr %45, i32 0, i32 1
  %47 = load ptr, ptr %46, align 8, !tbaa !71
  %48 = getelementptr inbounds nuw %struct.splines, ptr %47, i32 0, i32 0
  %49 = load ptr, ptr %48, align 8, !tbaa !72
  %50 = load ptr, ptr %3, align 8, !tbaa !61
  %51 = getelementptr inbounds nuw %struct.Agobj_s, ptr %50, i32 0, i32 1
  %52 = load ptr, ptr %51, align 8, !tbaa !32
  %53 = getelementptr inbounds nuw %struct.Agedgeinfo_t, ptr %52, i32 0, i32 1
  %54 = load ptr, ptr %53, align 8, !tbaa !71
  %55 = getelementptr inbounds nuw %struct.splines, ptr %54, i32 0, i32 1
  %56 = load i64, ptr %55, align 8, !tbaa !75
  %57 = load ptr, ptr %3, align 8, !tbaa !61
  %58 = getelementptr inbounds nuw %struct.Agobj_s, ptr %57, i32 0, i32 1
  %59 = load ptr, ptr %58, align 8, !tbaa !32
  %60 = getelementptr inbounds nuw %struct.Agedgeinfo_t, ptr %59, i32 0, i32 1
  %61 = load ptr, ptr %60, align 8, !tbaa !71
  %62 = getelementptr inbounds nuw %struct.splines, ptr %61, i32 0, i32 1
  %63 = load i64, ptr %62, align 8, !tbaa !75
  %64 = add i64 %63, 1
  %65 = call ptr @gv_recalloc(ptr noundef %49, i64 noundef %56, i64 noundef %64, i64 noundef 56)
  %66 = load ptr, ptr %3, align 8, !tbaa !61
  %67 = getelementptr inbounds nuw %struct.Agobj_s, ptr %66, i32 0, i32 1
  %68 = load ptr, ptr %67, align 8, !tbaa !32
  %69 = getelementptr inbounds nuw %struct.Agedgeinfo_t, ptr %68, i32 0, i32 1
  %70 = load ptr, ptr %69, align 8, !tbaa !71
  %71 = getelementptr inbounds nuw %struct.splines, ptr %70, i32 0, i32 0
  store ptr %65, ptr %71, align 8, !tbaa !72
  %72 = load ptr, ptr %3, align 8, !tbaa !61
  %73 = getelementptr inbounds nuw %struct.Agobj_s, ptr %72, i32 0, i32 1
  %74 = load ptr, ptr %73, align 8, !tbaa !32
  %75 = getelementptr inbounds nuw %struct.Agedgeinfo_t, ptr %74, i32 0, i32 1
  %76 = load ptr, ptr %75, align 8, !tbaa !71
  %77 = getelementptr inbounds nuw %struct.splines, ptr %76, i32 0, i32 0
  %78 = load ptr, ptr %77, align 8, !tbaa !72
  %79 = load ptr, ptr %3, align 8, !tbaa !61
  %80 = getelementptr inbounds nuw %struct.Agobj_s, ptr %79, i32 0, i32 1
  %81 = load ptr, ptr %80, align 8, !tbaa !32
  %82 = getelementptr inbounds nuw %struct.Agedgeinfo_t, ptr %81, i32 0, i32 1
  %83 = load ptr, ptr %82, align 8, !tbaa !71
  %84 = getelementptr inbounds nuw %struct.splines, ptr %83, i32 0, i32 1
  %85 = load i64, ptr %84, align 8, !tbaa !75
  %86 = add i64 %85, 1
  store i64 %86, ptr %84, align 8, !tbaa !75
  %87 = getelementptr inbounds nuw %struct.bezier, ptr %78, i64 %85
  store ptr %87, ptr %5, align 8, !tbaa !76
  %88 = load i64, ptr %4, align 8, !tbaa !62
  %89 = call ptr @gv_calloc(i64 noundef %88, i64 noundef 16)
  %90 = load ptr, ptr %5, align 8, !tbaa !76
  %91 = getelementptr inbounds nuw %struct.bezier, ptr %90, i32 0, i32 0
  store ptr %89, ptr %91, align 8, !tbaa !77
  %92 = load i64, ptr %4, align 8, !tbaa !62
  %93 = load ptr, ptr %5, align 8, !tbaa !76
  %94 = getelementptr inbounds nuw %struct.bezier, ptr %93, i32 0, i32 1
  store i64 %92, ptr %94, align 8, !tbaa !79
  %95 = load ptr, ptr %5, align 8, !tbaa !76
  %96 = getelementptr inbounds nuw %struct.bezier, ptr %95, i32 0, i32 3
  store i32 0, ptr %96, align 4, !tbaa !80
  %97 = load ptr, ptr %5, align 8, !tbaa !76
  %98 = getelementptr inbounds nuw %struct.bezier, ptr %97, i32 0, i32 2
  store i32 0, ptr %98, align 8, !tbaa !81
  %99 = load ptr, ptr %5, align 8, !tbaa !76
  %100 = getelementptr inbounds nuw %struct.bezier, ptr %99, i32 0, i32 5
  %101 = getelementptr inbounds nuw %struct.pointf_s, ptr %100, i32 0, i32 1
  store double 0.000000e+00, ptr %101, align 8, !tbaa !82
  %102 = load ptr, ptr %5, align 8, !tbaa !76
  %103 = getelementptr inbounds nuw %struct.bezier, ptr %102, i32 0, i32 5
  %104 = getelementptr inbounds nuw %struct.pointf_s, ptr %103, i32 0, i32 0
  store double 0.000000e+00, ptr %104, align 8, !tbaa !83
  %105 = load ptr, ptr %5, align 8, !tbaa !76
  %106 = getelementptr inbounds nuw %struct.bezier, ptr %105, i32 0, i32 4
  %107 = getelementptr inbounds nuw %struct.pointf_s, ptr %106, i32 0, i32 1
  store double 0.000000e+00, ptr %107, align 8, !tbaa !84
  %108 = load ptr, ptr %5, align 8, !tbaa !76
  %109 = getelementptr inbounds nuw %struct.bezier, ptr %108, i32 0, i32 4
  %110 = getelementptr inbounds nuw %struct.pointf_s, ptr %109, i32 0, i32 0
  store double 0.000000e+00, ptr %110, align 8, !tbaa !85
  %111 = load ptr, ptr %5, align 8, !tbaa !76
  call void @llvm.lifetime.end.p0(i64 8, ptr %5) #12
  ret ptr %111
}