; Function Attrs: nounwind uwtable
define noundef ptr @new_spline(ptr noundef readonly captures(none) %0, i64 noundef %1) local_unnamed_addr #0 {
  br label %3

3:                                                ; preds = %8, %2
  %.0 = phi ptr [ %0, %2 ], [ %7, %8 ]
  %4 = getelementptr inbounds nuw i8, ptr %.0, i64 16
  %5 = load ptr, ptr %4, align 8, !tbaa !9
  %6 = getelementptr inbounds nuw i8, ptr %5, i64 160
  %7 = load ptr, ptr %6, align 8, !tbaa !46
  %.not = icmp eq ptr %7, null
  br i1 %.not, label %.critedge, label %8

8:                                                ; preds = %3
  %9 = getelementptr inbounds nuw i8, ptr %5, i64 152
  %10 = load i8, ptr %9, align 8, !tbaa !53
  %.not22 = icmp eq i8 %10, 0
  br i1 %.not22, label %.critedge, label %3, !llvm.loop !54

.critedge:                                        ; preds = %3, %8
  %11 = getelementptr inbounds nuw i8, ptr %.0, i64 16
  %12 = getelementptr inbounds nuw i8, ptr %5, i64 16
  %13 = load ptr, ptr %12, align 8, !tbaa !55
  %14 = icmp eq ptr %13, null
  br i1 %14, label %15, label %.critedge._crit_edge

.critedge._crit_edge:                             ; preds = %.critedge
  %.pre = load ptr, ptr %13, align 8, !tbaa !56
  br label %21

15:                                               ; preds = %.critedge
  %16 = tail call noalias dereferenceable_or_null(48) ptr @calloc(i64 noundef 1, i64 noundef 48) #18
  %17 = icmp eq ptr %16, null
  br i1 %17, label %18, label %gv_alloc.exit

18:                                               ; preds = %15
  %19 = load ptr, ptr @stderr, align 8, !tbaa !59
  %20 = tail call i32 (ptr, ptr, ...) @fprintf(ptr noundef %19, ptr noundef nonnull @.str.2, i64 noundef 48) #19
  tail call fastcc void @graphviz_exit() #20
  unreachable

gv_alloc.exit:                                    ; preds = %15
  store ptr %16, ptr %12, align 8, !tbaa !55
  br label %21

21:                                               ; preds = %.critedge._crit_edge, %gv_alloc.exit
  %22 = phi ptr [ null, %gv_alloc.exit ], [ %.pre, %.critedge._crit_edge ]
  %23 = phi ptr [ %16, %gv_alloc.exit ], [ %13, %.critedge._crit_edge ]
  %24 = getelementptr inbounds nuw i8, ptr %23, i64 8
  %25 = load i64, ptr %24, align 8, !tbaa !61
  %26 = add i64 %25, 1
  %27 = icmp ugt i64 %26, 329406144173384850
  br i1 %27, label %28, label %31

28:                                               ; preds = %21
  %29 = load ptr, ptr @stderr, align 8, !tbaa !59
  %30 = tail call i32 (ptr, ptr, ...) @fprintf(ptr noundef %29, ptr noundef nonnull @.str.1, i64 noundef %26, i64 noundef 56) #19
  tail call fastcc void @graphviz_exit() #20
  unreachable

31:                                               ; preds = %21
  %32 = mul i64 %25, 56
  %33 = mul nuw i64 %26, 56
  %34 = icmp eq i64 %26, 0
  br i1 %34, label %35, label %36

35:                                               ; preds = %31
  tail call void @free(ptr noundef %22) #17
  br label %gv_recalloc.exit

36:                                               ; preds = %31
  %37 = tail call ptr @realloc(ptr noundef %22, i64 noundef range(i64 0, -15) %33) #21
  %38 = icmp eq ptr %37, null
  br i1 %38, label %39, label %42

39:                                               ; preds = %36
  %40 = load ptr, ptr @stderr, align 8, !tbaa !59
  %41 = tail call i32 (ptr, ptr, ...) @fprintf(ptr noundef %40, ptr noundef nonnull @.str.2, i64 noundef range(i64 0, -15) %33) #19
  tail call fastcc void @graphviz_exit() #20
  unreachable

42:                                               ; preds = %36
  %43 = icmp ugt i64 %33, %32
  br i1 %43, label %44, label %gv_recalloc.exit

44:                                               ; preds = %42
  %45 = getelementptr inbounds nuw i8, ptr %37, i64 %32
  tail call void @llvm.memset.p0.i64(ptr noundef nonnull align 1 dereferenceable(56) %45, i8 0, i64 56, i1 false)
  br label %gv_recalloc.exit

gv_recalloc.exit:                                 ; preds = %35, %42, %44
  %.0.i.i = phi ptr [ null, %35 ], [ %37, %44 ], [ %37, %42 ]
  %46 = load ptr, ptr %11, align 8, !tbaa !9
  %47 = getelementptr inbounds nuw i8, ptr %46, i64 16
  %48 = load ptr, ptr %47, align 8, !tbaa !55
  store ptr %.0.i.i, ptr %48, align 8, !tbaa !56
  %49 = getelementptr inbounds nuw i8, ptr %48, i64 8
  %50 = load i64, ptr %49, align 8, !tbaa !61
  %51 = add i64 %50, 1
  store i64 %51, ptr %49, align 8, !tbaa !61
  %.not.i = icmp eq i64 %1, 0
  br i1 %.not.i, label %.thread.i, label %53

.thread.i:                                        ; preds = %gv_recalloc.exit
  %52 = tail call noalias ptr @calloc(i64 noundef 0, i64 noundef 16) #18
  br label %gv_calloc.exit

53:                                               ; preds = %gv_recalloc.exit
  %mul.ov.i = icmp ugt i64 %1, 1152921504606846975
  br i1 %mul.ov.i, label %54, label %57

54:                                               ; preds = %53
  %55 = load ptr, ptr @stderr, align 8, !tbaa !59
  %56 = tail call i32 (ptr, ptr, ...) @fprintf(ptr noundef %55, ptr noundef nonnull @.str.1, i64 noundef %1, i64 noundef 16) #19
  tail call fastcc void @graphviz_exit() #20
  unreachable

57:                                               ; preds = %53
  %58 = tail call noalias ptr @calloc(i64 noundef %1, i64 noundef 16) #18
  %59 = icmp eq ptr %58, null
  br i1 %59, label %60, label %gv_calloc.exit

60:                                               ; preds = %57
  %61 = load ptr, ptr @stderr, align 8, !tbaa !59
  %62 = shl nuw i64 %1, 4
  %63 = tail call i32 (ptr, ptr, ...) @fprintf(ptr noundef %61, ptr noundef nonnull @.str.2, i64 noundef %62) #19
  tail call fastcc void @graphviz_exit() #20
  unreachable

gv_calloc.exit:                                   ; preds = %.thread.i, %57
  %64 = phi ptr [ %52, %.thread.i ], [ %58, %57 ]
  %65 = getelementptr inbounds nuw %struct.bezier, ptr %.0.i.i, i64 %50
  store ptr %64, ptr %65, align 8, !tbaa !62
  %66 = getelementptr inbounds nuw i8, ptr %65, i64 8
  store i64 %1, ptr %66, align 8, !tbaa !64
  %67 = getelementptr inbounds nuw i8, ptr %65, i64 16
  tail call void @llvm.memset.p0.i64(ptr noundef nonnull align 8 dereferenceable(40) %67, i8 0, i64 40, i1 false)
  ret ptr %65
}